target datalayout = "e-m:e-p270:32:32-p271:32:32-p272:64:64-i64:64-i128:128-f80:128-n8:16:32:64-S128"
target triple = "x86_64-pc-linux-gnu"

%"class.std::optional" = type { %"struct.std::_Optional_base" }
%"struct.std::_Optional_base" = type { %"struct.std::_Optional_payload" }
%"struct.std::_Optional_payload" = type { %"struct.std::_Optional_payload_base.base", [3 x i8] }
%"struct.std::_Optional_payload_base.base" = type <{ %"union.std::_Optional_payload_base<Luau::Mode>::_Storage", i8 }>
%"union.std::_Optional_payload_base<Luau::Mode>::_Storage" = type { i32 }
%"class.std::__cxx11::basic_string" = type { %"struct.std::__cxx11::basic_string<char>::_Alloc_hider", i64, %union.anon }
%"struct.std::__cxx11::basic_string<char>::_Alloc_hider" = type { ptr }
%union.anon = type { i64, [8 x i8] }
%"struct.std::_Vector_base.1" = type { %"struct.std::_Vector_base<Luau::HotComment, std::allocator<Luau::HotComment>>::_Vector_impl" }
%"struct.std::_Vector_base<Luau::HotComment, std::allocator<Luau::HotComment>>::_Vector_impl" = type { %"struct.std::_Vector_base<Luau::HotComment, std::allocator<Luau::HotComment>>::_Vector_impl_data" }
%"struct.std::_Vector_base<Luau::HotComment, std::allocator<Luau::HotComment>>::_Vector_impl_data" = type { ptr, ptr, ptr }
%"class.std::vector.0" = type { %"struct.std::_Vector_base.1" }
%"class.std::vector.8" = type { %"struct.std::_Vector_base.9" }
%"struct.std::_Vector_base.9" = type { %"struct.std::_Vector_base<Luau::ParseError, std::allocator<Luau::ParseError>>::_Vector_impl" }
%"struct.std::_Vector_base<Luau::ParseError, std::allocator<Luau::ParseError>>::_Vector_impl" = type { %"struct.std::_Vector_base<Luau::ParseError, std::allocator<Luau::ParseError>>::_Vector_impl_data" }
%"struct.std::_Vector_base<Luau::ParseError, std::allocator<Luau::ParseError>>::_Vector_impl_data" = type { ptr, ptr, ptr }
%"class.std::vector.13" = type { %"struct.std::_Vector_base.14" }
%"struct.std::_Vector_base.14" = type { %"struct.std::_Vector_base<Luau::Comment, std::allocator<Luau::Comment>>::_Vector_impl" }
%"struct.std::_Vector_base<Luau::Comment, std::allocator<Luau::Comment>>::_Vector_impl" = type { %"struct.std::_Vector_base<Luau::Comment, std::allocator<Luau::Comment>>::_Vector_impl_data" }
%"struct.std::_Vector_base<Luau::Comment, std::allocator<Luau::Comment>>::_Vector_impl_data" = type { ptr, ptr, ptr }
%"struct.Luau::SourceModule" = type { %"class.std::__cxx11::basic_string", %"class.std::__cxx11::basic_string", i32, [4 x i8], %"class.std::optional.18", i8, %"class.std::shared_ptr", %"class.std::shared_ptr.28", %"class.std::vector.8", ptr, %"class.std::optional", %"class.std::vector.0", %"class.std::vector.13" }
%"class.std::optional.18" = type { %"struct.std::_Optional_base.19" }
%"struct.std::_Optional_base.19" = type { %"struct.std::_Optional_payload.21" }
%"struct.std::_Optional_payload.21" = type { %"struct.std::_Optional_payload.base.25", [7 x i8] }
%"struct.std::_Optional_payload.base.25" = type { %"struct.std::_Optional_payload_base.base.24" }
%"struct.std::_Optional_payload_base.base.24" = type <{ %"union.std::_Optional_payload_base<std::__cxx11::basic_string<char>>::_Storage", i8 }>
%"union.std::_Optional_payload_base<std::__cxx11::basic_string<char>>::_Storage" = type { %"class.std::__cxx11::basic_string" }
%"class.std::shared_ptr" = type { %"class.std::__shared_ptr" }
%"class.std::__shared_ptr" = type { ptr, %"class.std::__shared_count" }
%"class.std::__shared_count" = type { ptr }
%"class.std::shared_ptr.28" = type { %"class.std::__shared_ptr.29" }
%"class.std::__shared_ptr.29" = type { ptr, %"class.std::__shared_count" }
%"class.std::shared_ptr.34" = type { %"class.std::__shared_ptr.35" }
%"class.std::__shared_ptr.35" = type { ptr, %"class.std::__shared_count" }
%"class.std::optional.102" = type { %"struct.std::_Optional_base.103" }
%"struct.std::_Optional_base.103" = type { %"struct.std::_Optional_payload.105" }
%"struct.std::_Optional_payload.105" = type { %"struct.std::_Optional_payload_base.base.107", [7 x i8] }
%"struct.std::_Optional_payload_base.base.107" = type <{ %"union.std::_Optional_payload_base<double>::_Storage", i8 }>
%"union.std::_Optional_payload_base<double>::_Storage" = type { double }
%"class.std::shared_ptr.99" = type { %"class.std::__shared_ptr.100" }
%"class.std::__shared_ptr.100" = type { ptr, %"class.std::__shared_count" }
%"struct.Luau::TypeArena" = type { %"class.Luau::TypedAllocator", %"class.Luau::TypedAllocator.77", ptr }
%"class.Luau::TypedAllocator" = type { i8, %"class.std::vector.72", i64 }
%"class.std::vector.72" = type { %"struct.std::_Vector_base.73" }
%"struct.std::_Vector_base.73" = type { %"struct.std::_Vector_base<Luau::Type *, std::allocator<Luau::Type *>>::_Vector_impl" }
%"struct.std::_Vector_base<Luau::Type *, std::allocator<Luau::Type *>>::_Vector_impl" = type { %"struct.std::_Vector_base<Luau::Type *, std::allocator<Luau::Type *>>::_Vector_impl_data" }
%"struct.std::_Vector_base<Luau::Type *, std::allocator<Luau::Type *>>::_Vector_impl_data" = type { ptr, ptr, ptr }
%"class.Luau::TypedAllocator.77" = type { i8, %"class.std::vector.78", i64 }
%"class.std::vector.78" = type { %"struct.std::_Vector_base.79" }
%"struct.std::_Vector_base.79" = type { %"struct.std::_Vector_base<Luau::TypePackVar *, std::allocator<Luau::TypePackVar *>>::_Vector_impl" }
%"struct.std::_Vector_base<Luau::TypePackVar *, std::allocator<Luau::TypePackVar *>>::_Vector_impl" = type { %"struct.std::_Vector_base<Luau::TypePackVar *, std::allocator<Luau::TypePackVar *>>::_Vector_impl_data" }
%"struct.std::_Vector_base<Luau::TypePackVar *, std::allocator<Luau::TypePackVar *>>::_Vector_impl_data" = type { ptr, ptr, ptr }
%"struct.std::__detail::_Hash_node_base" = type { ptr }
%"struct.std::__detail::_Prime_rehash_policy" = type { float, i64 }
%"struct.Luau::NotNull" = type { ptr }
%"class.std::_Function_base" = type { %"union.std::_Any_data", ptr }
%"union.std::_Any_data" = type { %"union.std::_Nocopy_types" }
%"union.std::_Nocopy_types" = type { { i64, i64 } }
%"struct.Luau::FrontendOptions" = type { i8, i8, i8, i8, %"class.std::optional.83", [4 x i8], %"class.std::optional.91", %"class.std::shared_ptr.99", %"class.std::optional.102", i8, %"class.std::function" }
%"class.std::optional.83" = type { %"struct.std::_Optional_base.84" }
%"struct.std::_Optional_base.84" = type { %"struct.std::_Optional_payload.86" }
%"struct.std::_Optional_payload.86" = type { %"struct.std::_Optional_payload_base.base.88", [3 x i8] }
%"struct.std::_Optional_payload_base.base.88" = type <{ %"union.std::_Optional_payload_base<unsigned int>::_Storage", i8 }>
%"union.std::_Optional_payload_base<unsigned int>::_Storage" = type { i32 }
%"class.std::optional.91" = type { %"struct.std::_Optional_base.92" }
%"struct.std::_Optional_base.92" = type { %"struct.std::_Optional_payload.94" }
%"struct.std::_Optional_payload.94" = type { %"struct.std::_Optional_payload_base.base.96", [7 x i8] }
%"struct.std::_Optional_payload_base.base.96" = type <{ %"union.std::_Optional_payload_base<Luau::LintOptions>::_Storage", i8 }>
%"union.std::_Optional_payload_base<Luau::LintOptions>::_Storage" = type { %"struct.Luau::LintOptions" }
%"struct.Luau::LintOptions" = type { i64 }
%"class.std::function" = type { %"class.std::_Function_base", ptr }
%"class.std::function.115" = type { %"class.std::_Function_base", ptr }
%class.anon.1000 = type <{ ptr, i8, [7 x i8] }>
%"struct.Luau::Frontend" = type { %"class.std::unordered_map", %"class.std::unordered_map.42", %"struct.Luau::BuiltinTypes", %"struct.Luau::NotNull", ptr, %"struct.Luau::FrontendModuleResolver", %"struct.Luau::FrontendModuleResolver", %"struct.Luau::GlobalTypes", %"struct.Luau::GlobalTypes", ptr, %"struct.Luau::FrontendOptions", %"struct.Luau::InternalErrorReporter", %"class.std::function.113", %"class.std::function.115", %"class.std::unordered_map.118", %"class.std::unordered_map.132", %"class.std::unordered_map.146", %"struct.Luau::Frontend::Stats", %"class.std::vector.160" }
%"class.std::unordered_map" = type { %"class.std::_Hashtable" }
%"class.std::_Hashtable" = type { ptr, i64, %"struct.std::__detail::_Hash_node_base", i64, %"struct.std::__detail::_Prime_rehash_policy", ptr }
%"class.std::unordered_map.42" = type { %"class.std::_Hashtable.43" }
%"class.std::_Hashtable.43" = type { ptr, i64, %"struct.std::__detail::_Hash_node_base", i64, %"struct.std::__detail::_Prime_rehash_policy", ptr }
%"struct.Luau::BuiltinTypes" = type { %"class.std::unique_ptr", i8, ptr, ptr, ptr, ptr, ptr, ptr, ptr, ptr, ptr, ptr, ptr, ptr, ptr, ptr, ptr, ptr, ptr, ptr, ptr, ptr, ptr, ptr, ptr, ptr, ptr, ptr, ptr }
%"class.std::unique_ptr" = type { %"struct.std::__uniq_ptr_data" }
%"struct.std::__uniq_ptr_data" = type { %"class.std::__uniq_ptr_impl" }
%"class.std::__uniq_ptr_impl" = type { %"class.std::tuple" }
%"class.std::tuple" = type { %"struct.std::_Tuple_impl" }
%"struct.std::_Tuple_impl" = type { %"struct.std::_Head_base.57" }
%"struct.std::_Head_base.57" = type { ptr }
%"struct.Luau::FrontendModuleResolver" = type { %"struct.Luau::ModuleResolver", ptr, %"class.std::mutex", %"class.std::unordered_map.58" }
%"struct.Luau::ModuleResolver" = type { ptr }
%"class.std::mutex" = type { %"class.std::__mutex_base" }
%"class.std::__mutex_base" = type { %union.pthread_mutex_t }
%union.pthread_mutex_t = type { %struct.__pthread_mutex_s }
%struct.__pthread_mutex_s = type { i32, i32, i32, i32, i32, i16, i16, %struct.__pthread_internal_list }
%struct.__pthread_internal_list = type { ptr, ptr }
%"class.std::unordered_map.58" = type { %"class.std::_Hashtable.59" }
%"class.std::_Hashtable.59" = type { ptr, i64, %"struct.std::__detail::_Hash_node_base", i64, %"struct.std::__detail::_Prime_rehash_policy", ptr }
%"struct.Luau::GlobalTypes" = type { %"struct.Luau::NotNull", %"struct.Luau::TypeArena", %"struct.Luau::SourceModule", %"class.std::shared_ptr.34" }
%"struct.Luau::InternalErrorReporter" = type { %"class.std::function.111", %"class.std::__cxx11::basic_string" }
%"class.std::function.111" = type { %"class.std::_Function_base", ptr }
%"class.std::function.113" = type { %"class.std::_Function_base", ptr }
%"class.std::unordered_map.118" = type { %"class.std::_Hashtable.119" }
%"class.std::_Hashtable.119" = type { ptr, i64, %"struct.std::__detail::_Hash_node_base", i64, %"struct.std::__detail::_Prime_rehash_policy", ptr }
%"class.std::unordered_map.132" = type { %"class.std::_Hashtable.133" }
%"class.std::_Hashtable.133" = type { ptr, i64, %"struct.std::__detail::_Hash_node_base", i64, %"struct.std::__detail::_Prime_rehash_policy", ptr }
%"class.std::unordered_map.146" = type { %"class.std::_Hashtable.147" }
%"class.std::_Hashtable.147" = type { ptr, i64, %"struct.std::__detail::_Hash_node_base", i64, %"struct.std::__detail::_Prime_rehash_policy", ptr }
%"struct.Luau::Frontend::Stats" = type { i64, i64, i64, i64, double, double, double, double }
%"class.std::vector.160" = type { %"struct.std::_Vector_base.161" }
%"struct.std::_Vector_base.161" = type { %"struct.std::_Vector_base<std::__cxx11::basic_string<char>, std::allocator<std::__cxx11::basic_string<char>>>::_Vector_impl" }
%"struct.std::_Vector_base<std::__cxx11::basic_string<char>, std::allocator<std::__cxx11::basic_string<char>>>::_Vector_impl" = type { %"struct.std::_Vector_base<std::__cxx11::basic_string<char>, std::allocator<std::__cxx11::basic_string<char>>>::_Vector_impl_data" }
%"struct.std::_Vector_base<std::__cxx11::basic_string<char>, std::allocator<std::__cxx11::basic_string<char>>>::_Vector_impl_data" = type { ptr, ptr, ptr }

; Function Attrs: mustprogress nounwind uwtable
define linkonce_odr dso_local noundef zeroext i1 @_ZNKSt14_Function_base8_M_emptyEv(ptr noundef nonnull align 8 dereferenceable(24) %0) #2 comdat align 2 {
  %2 = alloca ptr, align 8
  store ptr %0, ptr %2, align 8, !tbaa !1827
  %3 = load ptr, ptr %2, align 8
  %4 = getelementptr inbounds nuw %"class.std::_Function_base", ptr %3, i32 0, i32 1
  %5 = load ptr, ptr %4, align 8, !tbaa !521
  %6 = icmp ne ptr %5, null
  %7 = xor i1 %6, true
  ret i1 %7
}

; Function Attrs: mustprogress uwtable
define linkonce_odr dso_local void @_ZNKSt8functionIFvRKNSt7__cxx1112basic_stringIcSt11char_traitsIcESaIcEEERKSt10shared_ptrIN4Luau5ScopeEEbEEclES7_SD_b(ptr noundef nonnull align 8 dereferenceable(32) %0, ptr noundef nonnull align 8 dereferenceable(32) %1, ptr noundef nonnull align 8 dereferenceable(16) %2, i1 noundef zeroext %3) #6 comdat align 2 {
  %5 = alloca ptr, align 8
  %6 = alloca ptr, align 8
  %7 = alloca ptr, align 8
  %8 = alloca i8, align 1
  store ptr %0, ptr %5, align 8, !tbaa !305
  store ptr %1, ptr %6, align 8, !tbaa !52
  store ptr %2, ptr %7, align 8, !tbaa !61
  %9 = zext i1 %3 to i8
  store i8 %9, ptr %8, align 1, !tbaa !26
  %10 = load ptr, ptr %5, align 8
  %11 = call noundef zeroext i1 @_ZNKSt14_Function_base8_M_emptyEv(ptr noundef nonnull align 8 dereferenceable(24) %10)
  br i1 %11, label %12, label %13

12:                                               ; preds = %4
  call void @_ZSt25__throw_bad_function_callv() #27
  unreachable

13:                                               ; preds = %4
  %14 = getelementptr inbounds nuw %"class.std::function.113", ptr %10, i32 0, i32 1
  %15 = load ptr, ptr %14, align 8, !tbaa !307
  %16 = getelementptr inbounds nuw %"class.std::_Function_base", ptr %10, i32 0, i32 0
  %17 = load ptr, ptr %6, align 8, !tbaa !52
  %18 = load ptr, ptr %7, align 8, !tbaa !61
  call void %15(ptr noundef nonnull align 8 dereferenceable(16) %16, ptr noundef nonnull align 8 dereferenceable(32) %17, ptr noundef nonnull align 8 dereferenceable(16) %18, ptr noundef nonnull align 1 dereferenceable(1) %8)
  ret void
}

; Function Attrs: inlinehint mustprogress uwtable
define internal void @"_ZZN4Luau8Frontend5checkERKNS_12SourceModuleENS_4ModeESt6vectorINS_12RequireCycleESaIS6_EESt8optionalISt10shared_ptrINS_5ScopeEEEbbNS_15TypeCheckLimitsEENK3$_1clERKNSt7__cxx1112basic_stringIcSt11char_traitsIcESaIcEEERKSC_"(ptr noundef nonnull align 8 dereferenceable(9) %0, ptr noundef nonnull align 8 dereferenceable(32) %1, ptr noundef nonnull align 8 dereferenceable(16) %2) #5 align 2 {
  %4 = alloca ptr, align 8
  %5 = alloca ptr, align 8
  %6 = alloca ptr, align 8
  store ptr %0, ptr %4, align 8, !tbaa !56
  store ptr %1, ptr %5, align 8, !tbaa !52
  store ptr %2, ptr %6, align 8, !tbaa !61
  %7 = load ptr, ptr %4, align 8
  %8 = getelementptr inbounds nuw %class.anon.1000, ptr %7, i32 0, i32 0
  %9 = load ptr, ptr %8, align 8, !tbaa !231
  %10 = getelementptr inbounds nuw %"struct.Luau::Frontend", ptr %9, i32 0, i32 12
  %11 = load ptr, ptr %5, align 8, !tbaa !52
  %12 = load ptr, ptr %6, align 8, !tbaa !61
  %13 = getelementptr inbounds nuw %class.anon.1000, ptr %7, i32 0, i32 1
  %14 = load i8, ptr %13, align 8, !tbaa !233, !range !28, !noundef !29
  %15 = trunc i8 %14 to i1
  call void @_ZNKSt8functionIFvRKNSt7__cxx1112basic_stringIcSt11char_traitsIcESaIcEEERKSt10shared_ptrIN4Luau5ScopeEEbEEclES7_SD_b(ptr noundef nonnull align 8 dereferenceable(32) %10, ptr noundef nonnull align 8 dereferenceable(32) %11, ptr noundef nonnull align 8 dereferenceable(16) %12, i1 noundef zeroext %15)
  ret void
}

; Function Attrs: mustprogress nounwind uwtable
define linkonce_odr dso_local noundef ptr @_ZNKSt9_Any_data9_M_accessEv(ptr noundef nonnull align 8 dereferenceable(16) %0) #2 comdat align 2 {
  %2 = alloca ptr, align 8
  store ptr %0, ptr %2, align 8, !tbaa !2176
  %3 = load ptr, ptr %2, align 8
  %4 = getelementptr inbounds [16 x i8], ptr %3, i64 0, i64 0
  ret ptr %4
}

; Function Attrs: mustprogress uwtable
define internal void @"_ZSt13__invoke_implIvRZN4Luau8Frontend5checkERKNS0_12SourceModuleENS0_4ModeESt6vectorINS0_12RequireCycleESaIS7_EESt8optionalISt10shared_ptrINS0_5ScopeEEEbbNS0_15TypeCheckLimitsEE3$_1JRKNSt7__cxx1112basic_stringIcSt11char_traitsIcESaIcEEERKSD_EET_St14__invoke_otherOT0_DpOT1_"(ptr noundef nonnull align 8 dereferenceable(9) %0, ptr noundef nonnull align 8 dereferenceable(32) %1, ptr noundef nonnull align 8 dereferenceable(16) %2) #6 {
  %4 = alloca ptr, align 8
  %5 = alloca ptr, align 8
  %6 = alloca ptr, align 8
  store ptr %0, ptr %4, align 8, !tbaa !56
  store ptr %1, ptr %5, align 8, !tbaa !52
  store ptr %2, ptr %6, align 8, !tbaa !61
  %7 = load ptr, ptr %4, align 8, !tbaa !56
  %8 = load ptr, ptr %5, align 8, !tbaa !52
  %9 = load ptr, ptr %6, align 8, !tbaa !61
  call void @"_ZZN4Luau8Frontend5checkERKNS_12SourceModuleENS_4ModeESt6vectorINS_12RequireCycleESaIS6_EESt8optionalISt10shared_ptrINS_5ScopeEEEbbNS_15TypeCheckLimitsEENK3$_1clERKNSt7__cxx1112basic_stringIcSt11char_traitsIcESaIcEEERKSC_"(ptr noundef nonnull align 8 dereferenceable(9) %7, ptr noundef nonnull align 8 dereferenceable(32) %8, ptr noundef nonnull align 8 dereferenceable(16) %9)
  ret void
}

; Function Attrs: mustprogress nounwind uwtable
define internal noundef nonnull align 8 dereferenceable(9) ptr @"_ZNKSt9_Any_data9_M_accessIZN4Luau8Frontend5checkERKNS1_12SourceModuleENS1_4ModeESt6vectorINS1_12RequireCycleESaIS8_EESt8optionalISt10shared_ptrINS1_5ScopeEEEbbNS1_15TypeCheckLimitsEE3$_1EERKT_v"(ptr noundef nonnull align 8 dereferenceable(16) %0) #2 align 2 {
  %2 = alloca ptr, align 8
  store ptr %0, ptr %2, align 8, !tbaa !2176
  %3 = load ptr, ptr %2, align 8
  %4 = call noundef ptr @_ZNKSt9_Any_data9_M_accessEv(ptr noundef nonnull align 8 dereferenceable(16) %3) #4
  ret ptr %4
}

; Function Attrs: mustprogress uwtable
define internal void @"_ZSt10__invoke_rIvRZN4Luau8Frontend5checkERKNS0_12SourceModuleENS0_4ModeESt6vectorINS0_12RequireCycleESaIS7_EESt8optionalISt10shared_ptrINS0_5ScopeEEEbbNS0_15TypeCheckLimitsEE3$_1JRKNSt7__cxx1112basic_stringIcSt11char_traitsIcESaIcEEERKSD_EENSt9enable_ifIX16is_invocable_r_vIT_T0_DpT1_EEST_E4typeEOSU_DpOSV_"(ptr noundef nonnull align 8 dereferenceable(9) %0, ptr noundef nonnull align 8 dereferenceable(32) %1, ptr noundef nonnull align 8 dereferenceable(16) %2) #6 {
  %4 = alloca ptr, align 8
  %5 = alloca ptr, align 8
  %6 = alloca ptr, align 8
  store ptr %0, ptr %4, align 8, !tbaa !56
  store ptr %1, ptr %5, align 8, !tbaa !52
  store ptr %2, ptr %6, align 8, !tbaa !61
  %7 = load ptr, ptr %4, align 8, !tbaa !56
  %8 = load ptr, ptr %5, align 8, !tbaa !52
  %9 = load ptr, ptr %6, align 8, !tbaa !61
  call void @"_ZSt13__invoke_implIvRZN4Luau8Frontend5checkERKNS0_12SourceModuleENS0_4ModeESt6vectorINS0_12RequireCycleESaIS7_EESt8optionalISt10shared_ptrINS0_5ScopeEEEbbNS0_15TypeCheckLimitsEE3$_1JRKNSt7__cxx1112basic_stringIcSt11char_traitsIcESaIcEEERKSD_EET_St14__invoke_otherOT0_DpOT1_"(ptr noundef nonnull align 8 dereferenceable(9) %7, ptr noundef nonnull align 8 dereferenceable(32) %8, ptr noundef nonnull align 8 dereferenceable(16) %9)
  ret void
}

; Function Attrs: mustprogress nounwind uwtable
define internal noundef ptr @"_ZNSt14_Function_base13_Base_managerIZN4Luau8Frontend5checkERKNS1_12SourceModuleENS1_4ModeESt6vectorINS1_12RequireCycleESaIS8_EESt8optionalISt10shared_ptrINS1_5ScopeEEEbbNS1_15TypeCheckLimitsEE3$_1E14_M_get_pointerERKSt9_Any_data"(ptr noundef nonnull align 8 dereferenceable(16) %0) #2 align 2 {
  %2 = alloca ptr, align 8
  %3 = alloca ptr, align 8
  store ptr %0, ptr %2, align 8, !tbaa !2176
  call void @llvm.lifetime.start.p0(i64 8, ptr %3) #4
  %4 = load ptr, ptr %2, align 8, !tbaa !2176
  %5 = call noundef nonnull align 8 dereferenceable(9) ptr @"_ZNKSt9_Any_data9_M_accessIZN4Luau8Frontend5checkERKNS1_12SourceModuleENS1_4ModeESt6vectorINS1_12RequireCycleESaIS8_EESt8optionalISt10shared_ptrINS1_5ScopeEEEbbNS1_15TypeCheckLimitsEE3$_1EERKT_v"(ptr noundef nonnull align 8 dereferenceable(16) %4) #4
  store ptr %5, ptr %3, align 8, !tbaa !56
  %6 = load ptr, ptr %3, align 8, !tbaa !56
  call void @llvm.lifetime.end.p0(i64 8, ptr %3) #4
  ret ptr %6
}

; Function Attrs: mustprogress uwtable
define internal void @"_ZNSt17_Function_handlerIFvRKNSt7__cxx1112basic_stringIcSt11char_traitsIcESaIcEEERKSt10shared_ptrIN4Luau5ScopeEEEZNS9_8Frontend5checkERKNS9_12SourceModuleENS9_4ModeESt6vectorINS9_12RequireCycleESaISL_EESt8optionalISB_EbbNS9_15TypeCheckLimitsEE3$_1E9_M_invokeERKSt9_Any_dataS7_SD_"(ptr noundef nonnull align 8 dereferenceable(16) %0, ptr noundef nonnull align 8 dereferenceable(32) %1, ptr noundef nonnull align 8 dereferenceable(16) %2) #6 align 2 {
  %4 = alloca ptr, align 8
  %5 = alloca ptr, align 8
  %6 = alloca ptr, align 8
  store ptr %0, ptr %4, align 8, !tbaa !2176
  store ptr %1, ptr %5, align 8, !tbaa !52
  store ptr %2, ptr %6, align 8, !tbaa !61
  %7 = load ptr, ptr %4, align 8, !tbaa !2176
  %8 = call noundef ptr @"_ZNSt14_Function_base13_Base_managerIZN4Luau8Frontend5checkERKNS1_12SourceModuleENS1_4ModeESt6vectorINS1_12RequireCycleESaIS8_EESt8optionalISt10shared_ptrINS1_5ScopeEEEbbNS1_15TypeCheckLimitsEE3$_1E14_M_get_pointerERKSt9_Any_data"(ptr noundef nonnull align 8 dereferenceable(16) %7) #4
  %9 = load ptr, ptr %5, align 8, !tbaa !52
  %10 = load ptr, ptr %6, align 8, !tbaa !61
  call void @"_ZSt10__invoke_rIvRZN4Luau8Frontend5checkERKNS0_12SourceModuleENS0_4ModeESt6vectorINS0_12RequireCycleESaIS7_EESt8optionalISt10shared_ptrINS0_5ScopeEEEbbNS0_15TypeCheckLimitsEE3$_1JRKNSt7__cxx1112basic_stringIcSt11char_traitsIcESaIcEEERKSD_EENSt9enable_ifIX16is_invocable_r_vIT_T0_DpT1_EEST_E4typeEOSU_DpOSV_"(ptr noundef nonnull align 8 dereferenceable(9) %8, ptr noundef nonnull align 8 dereferenceable(32) %9, ptr noundef nonnull align 8 dereferenceable(16) %10)
  ret void
}