; Function Attrs: mustprogress uwtable
define internal void @"_ZNSt17_Function_handlerIFvRKNSt7__cxx1112basic_stringIcSt11char_traitsIcESaIcEEERKSt10shared_ptrIN4Luau5ScopeEEEZNS9_8Frontend5checkERKNS9_12SourceModuleENS9_4ModeESt6vectorINS9_12RequireCycleESaISL_EESt8optionalISB_EbbNS9_15TypeCheckLimitsEE3$_1E9_M_invokeERKSt9_Any_dataS7_SD_"(ptr noundef nonnull readonly align 8 captures(none) dereferenceable(16) %0, ptr noundef nonnull align 8 dereferenceable(32) %1, ptr noundef nonnull align 8 dereferenceable(16) %2) #5 align 2 {
  %4 = alloca i8, align 1
  %.val = load ptr, ptr %0, align 8, !tbaa !1639
  %5 = getelementptr inbounds nuw i8, ptr %0, i64 8
  %.val3 = load i8, ptr %5, align 8, !tbaa !1641, !range !30, !noundef !31
  call void @llvm.lifetime.start.p0(i64 1, ptr nonnull %4)
  store i8 %.val3, ptr %4, align 1, !tbaa !306
  %6 = getelementptr inbounds nuw i8, ptr %.val, i64 1480
  %7 = load ptr, ptr %6, align 8, !tbaa !309
  %.not.i.i.i.i.i = icmp eq ptr %7, null
  br i1 %.not.i.i.i.i.i, label %8, label %"_ZSt10__invoke_rIvRZN4Luau8Frontend5checkERKNS0_12SourceModuleENS0_4ModeESt6vectorINS0_12RequireCycleESaIS7_EESt8optionalISt10shared_ptrINS0_5ScopeEEEbbNS0_15TypeCheckLimitsEE3$_1JRKNSt7__cxx1112basic_stringIcSt11char_traitsIcESaIcEEERKSD_EENSt9enable_ifIX16is_invocable_r_vIT_T0_DpT1_EEST_E4typeEOSU_DpOSV_.exit"

8:                                                ; preds = %3
  tail call void @_ZSt25__throw_bad_function_callv() #32
  unreachable

"_ZSt10__invoke_rIvRZN4Luau8Frontend5checkERKNS0_12SourceModuleENS0_4ModeESt6vectorINS0_12RequireCycleESaIS7_EESt8optionalISt10shared_ptrINS0_5ScopeEEEbbNS0_15TypeCheckLimitsEE3$_1JRKNSt7__cxx1112basic_stringIcSt11char_traitsIcESaIcEEERKSD_EENSt9enable_ifIX16is_invocable_r_vIT_T0_DpT1_EEST_E4typeEOSU_DpOSV_.exit": ; preds = %3
  %9 = getelementptr inbounds nuw i8, ptr %.val, i64 1464
  %10 = getelementptr inbounds nuw i8, ptr %.val, i64 1488
  %11 = load ptr, ptr %10, align 8, !tbaa !1637
  call void %11(ptr noundef nonnull align 8 dereferenceable(32) %9, ptr noundef nonnull align 8 dereferenceable(32) %1, ptr noundef nonnull align 8 dereferenceable(16) %2, ptr noundef nonnull align 1 dereferenceable(1) %4)
  call void @llvm.lifetime.end.p0(i64 1, ptr nonnull %4)
  ret void
}